Certificate:
    Data:
        Version: 3 (0x2)
        Serial Number:
            4e:49:8b:93:8a:19:cb:cd:79:37:74:17:c1:9e:41:b8:bb:be:04:90
        Signature Algorithm: sha256WithRSAEncryption
        Issuer: C=CN, ST=Hunan, O=gw, OU=dev, CN=opensslCA
        Validity
            Not Before: Aug  5 07:57:17 2020 GMT
            Not After : Aug  3 07:57:17 2030 GMT
        Subject: C=CN, ST=Hunan, L=Changsha, O=gw, OU=dev, CN=*.hknaruto.com
        Subject Public Key Info:
            Public Key Algorithm: rsaEncryption
                RSA Public-Key: (2048 bit)
                Modulus:
                    00:b7:c4:2f:eb:05:74:16:58:25:0c:96:a1:b1:d1:
                    66:73:9b:45:1c:d0:f6:65:2b:80:e5:68:97:d6:2f:
                    a0:a3:a1:fc:76:be:77:09:ae:72:6d:56:f1:4d:da:
                    0e:e5:0c:f3:30:8c:13:14:90:e1:62:fe:df:50:ee:
                    d9:09:25:6c:ef:f8:9e:e7:ba:2d:48:07:5c:89:2e:
                    1f:c6:02:ac:ae:b1:e0:95:2c:9e:2e:19:a7:be:c6:
                    84:6e:8a:4e:b7:5b:ef:7d:c3:1d:1c:a3:23:af:04:
                    de:37:bd:1a:d7:dc:80:67:e3:59:44:e9:75:63:fe:
                    5b:b3:76:b7:92:ec:e6:44:9a:59:9a:b9:86:e9:12:
                    c3:61:9a:e3:d9:ae:d3:1b:51:cf:0d:33:df:75:f9:
                    73:c7:1e:61:18:99:eb:e0:ad:b6:6c:cb:22:de:66:
                    67:80:f5:96:33:fa:62:c5:3a:8c:57:7c:1f:e4:65:
                    ce:f9:fe:f5:70:88:6f:74:15:b2:9f:9a:8c:1a:c8:
                    9f:f0:19:b7:0e:42:13:06:30:72:eb:ca:7f:53:08:
                    ff:9f:74:f6:47:e6:fb:1b:72:d6:97:ff:47:ac:f6:
                    4a:b7:37:a2:49:66:46:32:76:fb:b9:85:63:26:a6:
                    20:fb:6f:79:b1:41:15:3d:89:91:a4:9c:2b:e9:83:
                    13:29
                Exponent: 65537 (0x10001)
        X509v3 extensions:
            X509v3 Subject Key Identifier: 
                1D:3E:2A:B9:89:15:B6:52:BC:58:48:D0:FC:02:54:FD:C1:9B:C3:52
            X509v3 Authority Key Identifier: 
                keyid:F0:47:5D:5D:24:F9:1C:CC:25:41:EF:52:05:44:FB:8A:CC:15:E0:D5

            X509v3 Basic Constraints: 
                CA:TRUE
            X509v3 Subject Alternative Name: 
                DNS:hknaruto.com, DNS:*.hknaruto.com
    Signature Algorithm: sha256WithRSAEncryption
         01:7c:08:4c:8c:52:8d:99:ff:23:b5:ec:52:4b:7c:c9:45:e8:
         9a:09:49:4b:d9:b3:63:8b:ca:d9:ff:64:62:e3:b7:41:a0:7c:
         d9:94:59:5b:0a:74:89:07:da:62:14:ff:75:1b:da:d3:e3:31:
         a8:d4:91:b7:c1:12:90:03:79:76:51:4a:9b:e6:c7:a5:9b:09:
         5d:a9:bd:66:a6:e6:0f:03:cf:0d:71:f8:ae:b3:98:b2:3f:13:
         53:df:a5:6b:95:38:a0:3c:cb:3e:18:ae:c1:e4:a5:bf:3b:ec:
         ad:b6:07:c4:15:e1:e4:0f:2b:3c:fd:dc:c4:d1:60:a3:06:66:
         7a:c2:54:ba:a5:45:93:91:19:7e:40:fa:da:76:64:e9:68:f4:
         75:ea:8e:5d:27:36:49:39:a6:dc:ff:67:a6:3f:b1:a7:79:29:
         f0:43:0c:b6:4f:b7:a5:97:fe:76:d0:e4:d3:ff:45:7d:2f:08:
         60:a4:b6:9e:98:a8:4b:e5:03:ff:e8:79:2c:ac:5a:58:8a:8d:
         7a:45:46:e2:ed:e0:ac:5b:f4:17:fe:53:93:81:2c:95:49:e7:
         f8:bd:e9:4f:41:e8:5f:aa:24:cf:7a:1d:d4:13:c5:81:5b:0f:
         a2:f8:07:6c:ac:cf:44:ef:8b:47:73:f3:a9:f5:c2:a1:79:c8:
         7c:86:2a:d1
-----BEGIN CERTIFICATE-----
MIIDtzCCAp+gAwIBAgIUTkmLk4oZy815N3QXwZ5BuLu+BJAwDQYJKoZIhvcNAQEL
BQAwTDELMAkGA1UEBhMCQ04xDjAMBgNVBAgMBUh1bmFuMQswCQYDVQQKDAJndzEM
MAoGA1UECwwDZGV2MRIwEAYDVQQDDAlvcGVuc3NsQ0EwHhcNMjAwODA1MDc1NzE3
WhcNMzAwODAzMDc1NzE3WjBkMQswCQYDVQQGEwJDTjEOMAwGA1UECAwFSHVuYW4x
ETAPBgNVBAcMCENoYW5nc2hhMQswCQYDVQQKDAJndzEMMAoGA1UECwwDZGV2MRcw
FQYDVQQDDA4qLmhrbmFydXRvLmNvbTCCASIwDQYJKoZIhvcNAQEBBQADggEPADCC
AQoCggEBALfEL+sFdBZYJQyWobHRZnObRRzQ9mUrgOVol9YvoKOh/Ha+dwmucm1W
8U3aDuUM8zCMExSQ4WL+31Du2QklbO/4nue6LUgHXIkuH8YCrK6x4JUsni4Zp77G
hG6KTrdb733DHRyjI68E3je9GtfcgGfjWUTpdWP+W7N2t5Ls5kSaWZq5hukSw2Ga
49mu0xtRzw0z33X5c8ceYRiZ6+CttmzLIt5mZ4D1ljP6YsU6jFd8H+Rlzvn+9XCI
b3QVsp+ajBrIn/AZtw5CEwYwcuvKf1MI/5909kfm+xty1pf/R6z2Src3oklmRjJ2
+7mFYyamIPtvebFBFT2JkaScK+mDEykCAwEAAaN5MHcwHQYDVR0OBBYEFB0+KrmJ
FbZSvFhI0PwCVP3Bm8NSMB8GA1UdIwQYMBaAFPBHXV0k+RzMJUHvUgVE+4rMFeDV
MAwGA1UdEwQFMAMBAf8wJwYDVR0RBCAwHoIMaGtuYXJ1dG8uY29tgg4qLmhrbmFy
dXRvLmNvbTANBgkqhkiG9w0BAQsFAAOCAQEAAXwITIxSjZn/I7XsUkt8yUXomglJ
S9mzY4vK2f9kYuO3QaB82ZRZWwp0iQfaYhT/dRva0+MxqNSRt8ESkAN5dlFKm+bH
pZsJXam9ZqbmDwPPDXH4rrOYsj8TU9+la5U4oDzLPhiuweSlvzvsrbYHxBXh5A8r
PP3cxNFgowZmesJUuqVFk5EZfkD62nZk6Wj0deqOXSc2STmm3P9npj+xp3kp8EMM
tk+3pZf+dtDk0/9FfS8IYKS2npioS+UD/+h5LKxaWIqNekVG4u3grFv0F/5Tk4Es
lUnn+L3pT0HoX6okz3od1BPFgVsPovgHbKzPRO+LR3PzqfXCoXnIfIYq0Q==
-----END CERTIFICATE-----
