Certificate:
    Data:
        Version: 3 (0x2)
        Serial Number:
            4e:49:8b:93:8a:19:cb:cd:79:37:74:17:c1:9e:41:b8:bb:be:04:8f
        Signature Algorithm: sha256WithRSAEncryption
        Issuer: C=CN, ST=Hunan, O=gw, OU=dev, CN=opensslCA
        Validity
            Not Before: Aug  5 07:56:52 2020 GMT
            Not After : Aug  3 07:56:52 2030 GMT
        Subject: C=CN, ST=Hunan, O=gw, OU=dev, CN=opensslCA
        Subject Public Key Info:
            Public Key Algorithm: rsaEncryption
                RSA Public-Key: (2048 bit)
                Modulus:
                    00:a9:f6:9f:93:9c:9d:e8:f4:e6:69:bc:18:16:d5:
                    eb:2f:1d:1a:62:70:c6:fb:a6:ac:c2:88:fe:f6:6a:
                    20:c2:0b:1d:dc:33:bb:4e:9b:fa:8b:b4:56:d9:6d:
                    90:39:65:54:99:be:5c:7e:0d:aa:30:64:0a:f2:d6:
                    27:f5:07:af:ad:d5:be:b7:b2:96:1c:f9:1b:eb:c9:
                    1b:96:6d:1b:b4:40:c4:fd:95:64:c9:22:66:10:77:
                    4a:60:97:ba:2e:50:59:05:bd:a2:ba:3e:62:b7:91:
                    85:7d:57:f0:c8:7a:66:c7:5c:47:db:03:7f:94:e6:
                    b5:bc:d1:2f:92:a6:5b:bd:9f:f5:86:2a:58:d0:93:
                    5d:e2:0a:b6:d4:1a:ea:59:f7:30:6c:fe:49:0f:66:
                    d2:41:5e:37:d7:79:f7:6c:3a:4e:f4:3b:f1:a5:ef:
                    f0:31:6e:a0:29:e1:dd:c7:aa:6c:88:69:07:bd:77:
                    3f:21:62:4b:c3:7d:48:da:a4:e1:fc:44:f5:fc:05:
                    46:00:56:00:88:19:72:7a:ad:a3:91:44:41:9c:37:
                    4e:48:a2:80:c9:53:ac:05:0b:95:6c:c7:a2:f7:3e:
                    a3:17:82:75:16:38:aa:86:58:21:86:b4:bd:d3:9c:
                    ed:7f:17:c0:0f:ad:a9:8f:98:88:18:11:00:c7:f0:
                    57:0f
                Exponent: 65537 (0x10001)
        X509v3 extensions:
            X509v3 Subject Key Identifier: 
                F0:47:5D:5D:24:F9:1C:CC:25:41:EF:52:05:44:FB:8A:CC:15:E0:D5
            X509v3 Authority Key Identifier: 
                keyid:F0:47:5D:5D:24:F9:1C:CC:25:41:EF:52:05:44:FB:8A:CC:15:E0:D5

            X509v3 Basic Constraints: 
                CA:TRUE
            X509v3 Subject Alternative Name: 
                DNS:hknaruto.com, DNS:*.hknaruto.com
    Signature Algorithm: sha256WithRSAEncryption
         33:81:88:e9:43:72:3d:59:29:28:26:82:ea:14:58:bc:df:19:
         3f:12:bb:e5:49:3c:0f:68:80:4a:0f:59:4e:43:5f:a3:ff:28:
         30:34:5f:55:02:11:29:c2:5f:8e:b5:d9:4a:8f:64:29:6f:61:
         67:e1:15:1a:e8:d4:c6:5e:13:9f:19:67:b8:2c:4e:19:f3:9d:
         80:93:dc:c1:5b:57:8d:ef:51:ad:06:79:9c:18:6c:20:c8:01:
         e7:e7:52:25:84:00:27:30:a3:4b:7f:69:f3:7e:95:e8:09:e3:
         20:60:d0:e8:9d:9a:bd:2c:ae:7b:0c:b3:71:12:d4:9a:14:9c:
         35:fd:f7:02:f9:4a:54:52:35:b2:26:5f:5b:d1:7c:5b:e0:47:
         8d:1b:dd:a0:8a:3a:23:ed:27:06:1e:88:3a:03:70:fe:b2:4a:
         34:bd:cb:46:4a:5e:f4:90:a9:09:20:14:44:45:46:f8:69:43:
         fd:51:00:70:91:01:90:72:6f:18:cd:7c:8c:b9:8b:30:e6:93:
         c5:df:96:3e:d8:eb:a3:90:c2:e3:6e:90:0a:91:f5:30:08:2e:
         ac:40:54:46:1a:75:aa:33:c4:4c:9a:66:aa:88:ba:a2:60:3a:
         95:f2:06:ad:b6:0f:86:56:89:a8:17:aa:6b:46:89:c6:8b:52:
         08:a0:52:e6
-----BEGIN CERTIFICATE-----
MIIDnzCCAoegAwIBAgIUTkmLk4oZy815N3QXwZ5BuLu+BI8wDQYJKoZIhvcNAQEL
BQAwTDELMAkGA1UEBhMCQ04xDjAMBgNVBAgMBUh1bmFuMQswCQYDVQQKDAJndzEM
MAoGA1UECwwDZGV2MRIwEAYDVQQDDAlvcGVuc3NsQ0EwHhcNMjAwODA1MDc1NjUy
WhcNMzAwODAzMDc1NjUyWjBMMQswCQYDVQQGEwJDTjEOMAwGA1UECAwFSHVuYW4x
CzAJBgNVBAoMAmd3MQwwCgYDVQQLDANkZXYxEjAQBgNVBAMMCW9wZW5zc2xDQTCC
ASIwDQYJKoZIhvcNAQEBBQADggEPADCCAQoCggEBAKn2n5Ocnej05mm8GBbV6y8d
GmJwxvumrMKI/vZqIMILHdwzu06b+ou0VtltkDllVJm+XH4NqjBkCvLWJ/UHr63V
vreylhz5G+vJG5ZtG7RAxP2VZMkiZhB3SmCXui5QWQW9oro+YreRhX1X8Mh6Zsdc
R9sDf5TmtbzRL5KmW72f9YYqWNCTXeIKttQa6ln3MGz+SQ9m0kFeN9d592w6TvQ7
8aXv8DFuoCnh3ceqbIhpB713PyFiS8N9SNqk4fxE9fwFRgBWAIgZcnqto5FEQZw3
TkiigMlTrAULlWzHovc+oxeCdRY4qoZYIYa0vdOc7X8XwA+tqY+YiBgRAMfwVw8C
AwEAAaN5MHcwHQYDVR0OBBYEFPBHXV0k+RzMJUHvUgVE+4rMFeDVMB8GA1UdIwQY
MBaAFPBHXV0k+RzMJUHvUgVE+4rMFeDVMAwGA1UdEwQFMAMBAf8wJwYDVR0RBCAw
HoIMaGtuYXJ1dG8uY29tgg4qLmhrbmFydXRvLmNvbTANBgkqhkiG9w0BAQsFAAOC
AQEAM4GI6UNyPVkpKCaC6hRYvN8ZPxK75Uk8D2iASg9ZTkNfo/8oMDRfVQIRKcJf
jrXZSo9kKW9hZ+EVGujUxl4TnxlnuCxOGfOdgJPcwVtXje9RrQZ5nBhsIMgB5+dS
JYQAJzCjS39p836V6AnjIGDQ6J2avSyuewyzcRLUmhScNf33AvlKVFI1siZfW9F8
W+BHjRvdoIo6I+0nBh6IOgNw/rJKNL3LRkpe9JCpCSAUREVG+GlD/VEAcJEBkHJv
GM18jLmLMOaTxd+WPtjro5DC426QCpH1MAgurEBURhp1qjPETJpmqoi6omA6lfIG
rbYPhlaJqBeqa0aJxotSCKBS5g==
-----END CERTIFICATE-----
